target datalayout = "e-m:e-p270:32:32-p271:32:32-p272:64:64-i64:64-i128:128-f80:128-n8:16:32:64-S128"
target triple = "x86_64-pc-linux-gnu"

%struct.cbb_buffer_st = type { ptr, i64, i64, i8 }
%struct.cbb_st = type { ptr, ptr, i64, i8, i8, i8 }

; Function Attrs: nounwind uwtable
define hidden i64 @CBB_len(ptr noundef %0) #0 {
  %2 = alloca ptr, align 8
  store ptr %0, ptr %2, align 8, !tbaa !6
  %3 = load ptr, ptr %2, align 8, !tbaa !6
  %4 = getelementptr inbounds nuw %struct.cbb_st, ptr %3, i32 0, i32 0
  %5 = load ptr, ptr %4, align 8, !tbaa !22
  %6 = getelementptr inbounds nuw %struct.cbb_buffer_st, ptr %5, i32 0, i32 1
  %7 = load i64, ptr %6, align 8, !tbaa !19
  %8 = load ptr, ptr %2, align 8, !tbaa !6
  %9 = getelementptr inbounds nuw %struct.cbb_st, ptr %8, i32 0, i32 2
  %10 = load i64, ptr %9, align 8, !tbaa !31
  %11 = sub i64 %7, %10
  %12 = load ptr, ptr %2, align 8, !tbaa !6
  %13 = getelementptr inbounds nuw %struct.cbb_st, ptr %12, i32 0, i32 3
  %14 = load i8, ptr %13, align 8, !tbaa !30
  %15 = zext i8 %14 to i64
  %16 = sub i64 %11, %15
  ret i64 %16
}