; Function Attrs: mustprogress nofree norecurse nosync nounwind willreturn memory(read, inaccessiblemem: none) uwtable
define hidden i64 @CBB_len(ptr noundef readonly captures(none) %0) local_unnamed_addr #10 {
  %2 = load ptr, ptr %0, align 8, !tbaa !16
  %3 = getelementptr inbounds nuw i8, ptr %2, i64 8
  %4 = load i64, ptr %3, align 8, !tbaa !13
  %5 = getelementptr inbounds nuw i8, ptr %0, i64 16
  %6 = load i64, ptr %5, align 8, !tbaa !25
  %7 = getelementptr inbounds nuw i8, ptr %0, i64 24
  %8 = load i8, ptr %7, align 8, !tbaa !24
  %9 = zext i8 %8 to i64
  %10 = add i64 %6, %9
  %11 = sub i64 %4, %10
  ret i64 %11
}